; Function Attrs: mustprogress uwtable
define void @_ZN5ZXing6Pdf4176WriterC2Ev(ptr noundef nonnull writeonly align 8 captures(none) dereferenceable(16) initializes((0, 16)) %0) unnamed_addr #0 align 2 personality ptr @__gxx_personality_v0 {
  store i32 -1, ptr %0, align 8, !tbaa !3
  %2 = getelementptr inbounds nuw i8, ptr %0, i64 4
  store i32 -1, ptr %2, align 4, !tbaa !16
  %3 = getelementptr inbounds nuw i8, ptr %0, i64 8
  store ptr null, ptr %3, align 8, !tbaa !72
  %4 = invoke noalias noundef nonnull dereferenceable(28) ptr @_Znwm(i64 noundef 28) #24
          to label %_ZNSt10unique_ptrIN5ZXing6Pdf4177EncoderESt14default_deleteIS2_EE5resetEPS2_.exit unwind label %_ZNSt10unique_ptrIN5ZXing6Pdf4177EncoderESt14default_deleteIS2_EED2Ev.exit

_ZNSt10unique_ptrIN5ZXing6Pdf4177EncoderESt14default_deleteIS2_EE5resetEPS2_.exit: ; preds = %1
  store i8 0, ptr %4, align 4, !tbaa !73
  %5 = getelementptr inbounds nuw i8, ptr %4, i64 4
  store i32 0, ptr %5, align 4, !tbaa !78
  %6 = getelementptr inbounds nuw i8, ptr %4, i64 8
  store i8 2, ptr %6, align 4, !tbaa !79
  %7 = getelementptr inbounds nuw i8, ptr %4, i64 12
  store i32 2, ptr %7, align 4, !tbaa !80
  %8 = getelementptr inbounds nuw i8, ptr %4, i64 16
  store i32 30, ptr %8, align 4, !tbaa !81
  %9 = getelementptr inbounds nuw i8, ptr %4, i64 20
  store i32 2, ptr %9, align 4, !tbaa !82
  %10 = getelementptr inbounds nuw i8, ptr %4, i64 24
  store i32 30, ptr %10, align 4, !tbaa !83
  store ptr %4, ptr %3, align 8, !tbaa !17
  ret void

_ZNSt10unique_ptrIN5ZXing6Pdf4177EncoderESt14default_deleteIS2_EED2Ev.exit: ; preds = %1
  %11 = landingpad { ptr, i32 }
          cleanup
  store ptr null, ptr %3, align 8, !tbaa !17
  resume { ptr, i32 } %11
}